target datalayout = "e-m:e-p270:32:32-p271:32:32-p272:64:64-i64:64-i128:128-f80:128-n8:16:32:64-S128"
target triple = "x86_64-pc-linux-gnu"

%struct.OSSL_TIME = type { i64 }

@libctx = internal global ptr null, align 8
@.str.14 = private unnamed_addr constant [30 x i8] c"../openssl/test/quicapitest.c\00", align 1
@cert = internal global ptr null, align 8
@privkey = internal global ptr null, align 8
@.str.61 = private unnamed_addr constant [43 x i8] c"Blocking tests not supported in this build\00", align 1
@.str.62 = private unnamed_addr constant [5 x i8] c"cctx\00", align 1
@.str.64 = private unnamed_addr constant [50 x i8] c"SSL_set_tlsext_host_name(clientquic, \22localhost\22)\00", align 1
@.str.65 = private unnamed_addr constant [10 x i8] c"localhost\00", align 1
@.str.67 = private unnamed_addr constant [49 x i8] c"qtest_create_quic_connection(qtserv, clientquic)\00", align 1
@.str.72 = private unnamed_addr constant [9 x i8] c"numbytes\00", align 1
@.str.76 = private unnamed_addr constant [4 x i8] c"buf\00", align 1
@.str.77 = private unnamed_addr constant [4 x i8] c"msg\00", align 1
@.str.80 = private unnamed_addr constant [29 x i8] c"SSL_get_error(clientquic, 0)\00", align 1
@.str.91 = private unnamed_addr constant [35 x i8] c"qtest_shutdown(qtserv, clientquic)\00", align 1
@.str.93 = private unnamed_addr constant [12 x i8] c"Hello World\00", align 1
@.str.94 = private unnamed_addr constant [113 x i8] c"qtest_create_quic_objects(libctx, cctx, sctx, cert, privkey, QTEST_FLAG_BLOCK, &qtserv, &clientquic, NULL, NULL)\00", align 1
@.str.95 = private unnamed_addr constant [46 x i8] c"ossl_quic_tserver_stream_new(qtserv, 0, &sid)\00", align 1
@.str.96 = private unnamed_addr constant [83 x i8] c"ossl_quic_tserver_write(qtserv, sid, (unsigned char *)msg, strlen(msg), &numbytes)\00", align 1
@.str.97 = private unnamed_addr constant [12 x i8] c"strlen(msg)\00", align 1
@.str.98 = private unnamed_addr constant [53 x i8] c"SSL_read_ex(clientquic, buf, sizeof(buf), &numbytes)\00", align 1
@.str.99 = private unnamed_addr constant [40 x i8] c"ossl_quic_tserver_conclude(qtserv, sid)\00", align 1
@.str.100 = private unnamed_addr constant [22 x i8] c"SSL_ERROR_ZERO_RETURN\00", align 1
@.str.101 = private unnamed_addr constant [23 x i8] c"ossl_time2ms(timediff)\00", align 1
@.str.102 = private unnamed_addr constant [3 x i8] c"40\00", align 1

; Function Attrs: inlinehint nounwind uwtable
define internal i64 @ossl_ticks2time(i64 noundef %0) #5 {
  %2 = alloca %struct.OSSL_TIME, align 8
  %3 = alloca i64, align 8
  store i64 %0, ptr %3, align 8, !tbaa !21
  %4 = load i64, ptr %3, align 8, !tbaa !21
  %5 = getelementptr inbounds nuw %struct.OSSL_TIME, ptr %2, i32 0, i32 0
  store i64 %4, ptr %5, align 8, !tbaa !69
  %6 = getelementptr inbounds nuw %struct.OSSL_TIME, ptr %2, i32 0, i32 0
  %7 = load i64, ptr %6, align 8
  ret i64 %7
}

; Function Attrs: inlinehint nounwind uwtable
define internal i64 @ossl_time_zero() #5 {
  %1 = alloca %struct.OSSL_TIME, align 8
  %2 = call i64 @ossl_ticks2time(i64 noundef 0)
  %3 = getelementptr inbounds nuw %struct.OSSL_TIME, ptr %1, i32 0, i32 0
  store i64 %2, ptr %3, align 8
  %4 = getelementptr inbounds nuw %struct.OSSL_TIME, ptr %1, i32 0, i32 0
  %5 = load i64, ptr %4, align 8
  ret i64 %5
}

; Function Attrs: inlinehint nounwind uwtable
define internal i64 @safe_sub_time(i64 noundef %0, i64 noundef %1, ptr noundef %2) #5 {
  %4 = alloca i64, align 8
  %5 = alloca i64, align 8
  %6 = alloca ptr, align 8
  store i64 %0, ptr %4, align 8, !tbaa !21
  store i64 %1, ptr %5, align 8, !tbaa !21
  store ptr %2, ptr %6, align 8, !tbaa !71
  %7 = load i64, ptr %5, align 8, !tbaa !21
  %8 = load i64, ptr %4, align 8, !tbaa !21
  %9 = icmp ugt i64 %7, %8
  br i1 %9, label %10, label %14

10:                                               ; preds = %3
  %11 = load ptr, ptr %6, align 8, !tbaa !71
  %12 = load i32, ptr %11, align 4, !tbaa !13
  %13 = or i32 %12, 1
  store i32 %13, ptr %11, align 4, !tbaa !13
  br label %14

14:                                               ; preds = %10, %3
  %15 = load i64, ptr %4, align 8, !tbaa !21
  %16 = load i64, ptr %5, align 8, !tbaa !21
  %17 = sub i64 %15, %16
  ret i64 %17
}

; Function Attrs: inlinehint nounwind uwtable
define internal i64 @ossl_time2ticks(i64 %0) #5 {
  %2 = alloca %struct.OSSL_TIME, align 8
  %3 = getelementptr inbounds nuw %struct.OSSL_TIME, ptr %2, i32 0, i32 0
  store i64 %0, ptr %3, align 8
  %4 = getelementptr inbounds nuw %struct.OSSL_TIME, ptr %2, i32 0, i32 0
  %5 = load i64, ptr %4, align 8, !tbaa !69
  ret i64 %5
}

; Function Attrs: inlinehint nounwind uwtable
define internal i64 @ossl_time_subtract(i64 %0, i64 %1) #5 {
  %3 = alloca %struct.OSSL_TIME, align 8
  %4 = alloca %struct.OSSL_TIME, align 8
  %5 = alloca %struct.OSSL_TIME, align 8
  %6 = alloca %struct.OSSL_TIME, align 8
  %7 = alloca i32, align 4
  %8 = getelementptr inbounds nuw %struct.OSSL_TIME, ptr %4, i32 0, i32 0
  store i64 %0, ptr %8, align 8
  %9 = getelementptr inbounds nuw %struct.OSSL_TIME, ptr %5, i32 0, i32 0
  store i64 %1, ptr %9, align 8
  call void @llvm.lifetime.start.p0(i64 8, ptr %6) #8
  call void @llvm.lifetime.start.p0(i64 4, ptr %7) #8
  store i32 0, ptr %7, align 4, !tbaa !13
  %10 = getelementptr inbounds nuw %struct.OSSL_TIME, ptr %4, i32 0, i32 0
  %11 = load i64, ptr %10, align 8, !tbaa !69
  %12 = getelementptr inbounds nuw %struct.OSSL_TIME, ptr %5, i32 0, i32 0
  %13 = load i64, ptr %12, align 8, !tbaa !69
  %14 = call i64 @safe_sub_time(i64 noundef %11, i64 noundef %13, ptr noundef %7)
  %15 = getelementptr inbounds nuw %struct.OSSL_TIME, ptr %6, i32 0, i32 0
  store i64 %14, ptr %15, align 8, !tbaa !69
  %16 = load i32, ptr %7, align 4, !tbaa !13
  %17 = icmp ne i32 %16, 0
  br i1 %17, label %18, label %21

18:                                               ; preds = %2
  %19 = call i64 @ossl_time_zero()
  %20 = getelementptr inbounds nuw %struct.OSSL_TIME, ptr %3, i32 0, i32 0
  store i64 %19, ptr %20, align 8
  br label %22

21:                                               ; preds = %2
  call void @llvm.memcpy.p0.p0.i64(ptr align 8 %3, ptr align 8 %6, i64 8, i1 false), !tbaa.struct !29
  br label %22

22:                                               ; preds = %21, %18
  call void @llvm.lifetime.end.p0(i64 4, ptr %7) #8
  call void @llvm.lifetime.end.p0(i64 8, ptr %6) #8
  %23 = getelementptr inbounds nuw %struct.OSSL_TIME, ptr %3, i32 0, i32 0
  %24 = load i64, ptr %23, align 8
  ret i64 %24
}

; Function Attrs: nounwind uwtable
define internal i32 @test_fin_only_blocking() #0 {
  %1 = alloca i32, align 4
  %2 = alloca ptr, align 8
  %3 = alloca ptr, align 8
  %4 = alloca ptr, align 8
  %5 = alloca ptr, align 8
  %6 = alloca ptr, align 8
  %7 = alloca i64, align 8
  %8 = alloca i64, align 8
  %9 = alloca [32 x i8], align 16
  %10 = alloca i32, align 4
  %11 = alloca %struct.OSSL_TIME, align 8
  %12 = alloca %struct.OSSL_TIME, align 8
  %13 = alloca i32, align 4
  %14 = alloca %struct.OSSL_TIME, align 8
  %15 = alloca %struct.OSSL_TIME, align 8
  %16 = alloca %struct.OSSL_TIME, align 8
  call void @llvm.lifetime.start.p0(i64 8, ptr %2) #8
  %17 = load ptr, ptr @libctx, align 8, !tbaa !4
  %18 = call ptr @OSSL_QUIC_client_method()
  %19 = call ptr @SSL_CTX_new_ex(ptr noundef %17, ptr noundef null, ptr noundef %18)
  store ptr %19, ptr %2, align 8, !tbaa !15
  call void @llvm.lifetime.start.p0(i64 8, ptr %3) #8
  store ptr null, ptr %3, align 8, !tbaa !15
  call void @llvm.lifetime.start.p0(i64 8, ptr %4) #8
  store ptr null, ptr %4, align 8, !tbaa !17
  call void @llvm.lifetime.start.p0(i64 8, ptr %5) #8
  store ptr null, ptr %5, align 8, !tbaa !19
  call void @llvm.lifetime.start.p0(i64 8, ptr %6) #8
  store ptr @.str.93, ptr %6, align 8, !tbaa !11
  call void @llvm.lifetime.start.p0(i64 8, ptr %7) #8
  call void @llvm.lifetime.start.p0(i64 8, ptr %8) #8
  call void @llvm.lifetime.start.p0(i64 32, ptr %9) #8
  call void @llvm.lifetime.start.p0(i64 4, ptr %10) #8
  store i32 0, ptr %10, align 4, !tbaa !13
  call void @llvm.lifetime.start.p0(i64 8, ptr %11) #8
  call void @llvm.lifetime.start.p0(i64 8, ptr %12) #8
  %20 = call i32 @qtest_supports_blocking()
  %21 = icmp ne i32 %20, 0
  br i1 %21, label %24, label %22

22:                                               ; preds = %0
  %23 = call i32 (ptr, i32, ptr, ...) @test_skip(ptr noundef @.str.14, i32 noundef 226, ptr noundef @.str.61)
  store i32 %23, ptr %1, align 4
  store i32 1, ptr %13, align 4
  br label %157

24:                                               ; preds = %0
  %25 = load ptr, ptr %2, align 8, !tbaa !15
  %26 = call i32 @test_ptr(ptr noundef @.str.14, i32 noundef 228, ptr noundef @.str.62, ptr noundef %25)
  %27 = icmp ne i32 %26, 0
  br i1 %27, label %28, label %46

28:                                               ; preds = %24
  %29 = load ptr, ptr @libctx, align 8, !tbaa !4
  %30 = load ptr, ptr %2, align 8, !tbaa !15
  %31 = load ptr, ptr %3, align 8, !tbaa !15
  %32 = load ptr, ptr @cert, align 8, !tbaa !11
  %33 = load ptr, ptr @privkey, align 8, !tbaa !11
  %34 = call i32 @qtest_create_quic_objects(ptr noundef %29, ptr noundef %30, ptr noundef %31, ptr noundef %32, ptr noundef %33, i32 noundef 1, ptr noundef %5, ptr noundef %4, ptr noundef null, ptr noundef null)
  %35 = icmp ne i32 %34, 0
  %36 = zext i1 %35 to i32
  %37 = call i32 @test_true(ptr noundef @.str.14, i32 noundef 233, ptr noundef @.str.94, i32 noundef %36)
  %38 = icmp ne i32 %37, 0
  br i1 %38, label %39, label %46

39:                                               ; preds = %28
  %40 = load ptr, ptr %4, align 8, !tbaa !17
  %41 = call i64 @SSL_ctrl(ptr noundef %40, i32 noundef 55, i64 noundef 0, ptr noundef @.str.65)
  %42 = icmp ne i64 %41, 0
  %43 = zext i1 %42 to i32
  %44 = call i32 @test_true(ptr noundef @.str.14, i32 noundef 234, ptr noundef @.str.64, i32 noundef %43)
  %45 = icmp ne i32 %44, 0
  br i1 %45, label %47, label %46

46:                                               ; preds = %39, %28, %24
  br label %151

47:                                               ; preds = %39
  %48 = load ptr, ptr %5, align 8, !tbaa !19
  %49 = load ptr, ptr %4, align 8, !tbaa !17
  %50 = call i32 @qtest_create_quic_connection(ptr noundef %48, ptr noundef %49)
  %51 = icmp ne i32 %50, 0
  %52 = zext i1 %51 to i32
  %53 = call i32 @test_true(ptr noundef @.str.14, i32 noundef 237, ptr noundef @.str.67, i32 noundef %52)
  %54 = icmp ne i32 %53, 0
  br i1 %54, label %56, label %55

55:                                               ; preds = %47
  br label %151

56:                                               ; preds = %47
  %57 = load ptr, ptr %5, align 8, !tbaa !19
  %58 = call i32 @ossl_quic_tserver_stream_new(ptr noundef %57, i32 noundef 0, ptr noundef %7)
  %59 = icmp ne i32 %58, 0
  %60 = zext i1 %59 to i32
  %61 = call i32 @test_true(ptr noundef @.str.14, i32 noundef 240, ptr noundef @.str.95, i32 noundef %60)
  %62 = icmp ne i32 %61, 0
  br i1 %62, label %63, label %80

63:                                               ; preds = %56
  %64 = load ptr, ptr %5, align 8, !tbaa !19
  %65 = load i64, ptr %7, align 8, !tbaa !21
  %66 = load ptr, ptr %6, align 8, !tbaa !11
  %67 = load ptr, ptr %6, align 8, !tbaa !11
  %68 = call i64 @strlen(ptr noundef %67) #9
  %69 = call i32 @ossl_quic_tserver_write(ptr noundef %64, i64 noundef %65, ptr noundef %66, i64 noundef %68, ptr noundef %8)
  %70 = icmp ne i32 %69, 0
  %71 = zext i1 %70 to i32
  %72 = call i32 @test_true(ptr noundef @.str.14, i32 noundef 243, ptr noundef @.str.96, i32 noundef %71)
  %73 = icmp ne i32 %72, 0
  br i1 %73, label %74, label %80

74:                                               ; preds = %63
  %75 = load ptr, ptr %6, align 8, !tbaa !11
  %76 = call i64 @strlen(ptr noundef %75) #9
  %77 = load i64, ptr %8, align 8, !tbaa !21
  %78 = call i32 @test_size_t_eq(ptr noundef @.str.14, i32 noundef 244, ptr noundef @.str.97, ptr noundef @.str.72, i64 noundef %76, i64 noundef %77)
  %79 = icmp ne i32 %78, 0
  br i1 %79, label %81, label %80

80:                                               ; preds = %74, %63, %56
  br label %151

81:                                               ; preds = %74
  %82 = load ptr, ptr %5, align 8, !tbaa !19
  %83 = call i32 @ossl_quic_tserver_tick(ptr noundef %82)
  %84 = load ptr, ptr %4, align 8, !tbaa !17
  %85 = getelementptr inbounds [32 x i8], ptr %9, i64 0, i64 0
  %86 = call i32 @SSL_read_ex(ptr noundef %84, ptr noundef %85, i64 noundef 32, ptr noundef %8)
  %87 = icmp ne i32 %86, 0
  %88 = zext i1 %87 to i32
  %89 = call i32 @test_true(ptr noundef @.str.14, i32 noundef 249, ptr noundef @.str.98, i32 noundef %88)
  %90 = icmp ne i32 %89, 0
  br i1 %90, label %91, label %99

91:                                               ; preds = %81
  %92 = load ptr, ptr %6, align 8, !tbaa !11
  %93 = load ptr, ptr %6, align 8, !tbaa !11
  %94 = call i64 @strlen(ptr noundef %93) #9
  %95 = getelementptr inbounds [32 x i8], ptr %9, i64 0, i64 0
  %96 = load i64, ptr %8, align 8, !tbaa !21
  %97 = call i32 @test_mem_eq(ptr noundef @.str.14, i32 noundef 250, ptr noundef @.str.77, ptr noundef @.str.76, ptr noundef %92, i64 noundef %94, ptr noundef %95, i64 noundef %96)
  %98 = icmp ne i32 %97, 0
  br i1 %98, label %100, label %99

99:                                               ; preds = %91, %81
  br label %151

100:                                              ; preds = %91
  %101 = load ptr, ptr %5, align 8, !tbaa !19
  %102 = load i64, ptr %7, align 8, !tbaa !21
  %103 = call i32 @ossl_quic_tserver_conclude(ptr noundef %101, i64 noundef %102)
  %104 = icmp ne i32 %103, 0
  %105 = zext i1 %104 to i32
  %106 = call i32 @test_true(ptr noundef @.str.14, i32 noundef 255, ptr noundef @.str.99, i32 noundef %105)
  %107 = icmp ne i32 %106, 0
  br i1 %107, label %109, label %108

108:                                              ; preds = %100
  br label %151

109:                                              ; preds = %100
  call void @llvm.lifetime.start.p0(i64 8, ptr %14) #8
  %110 = call i64 @ossl_time_now()
  %111 = getelementptr inbounds nuw %struct.OSSL_TIME, ptr %14, i32 0, i32 0
  store i64 %110, ptr %111, align 8
  call void @llvm.memcpy.p0.p0.i64(ptr align 8 %11, ptr align 8 %14, i64 8, i1 false), !tbaa.struct !29
  call void @llvm.lifetime.end.p0(i64 8, ptr %14) #8
  %112 = load ptr, ptr %4, align 8, !tbaa !17
  %113 = getelementptr inbounds [32 x i8], ptr %9, i64 0, i64 0
  %114 = call i32 @SSL_read_ex(ptr noundef %112, ptr noundef %113, i64 noundef 32, ptr noundef %8)
  %115 = icmp ne i32 %114, 0
  %116 = zext i1 %115 to i32
  %117 = call i32 @test_false(ptr noundef @.str.14, i32 noundef 259, ptr noundef @.str.98, i32 noundef %116)
  %118 = icmp ne i32 %117, 0
  br i1 %118, label %120, label %119

119:                                              ; preds = %109
  br label %151

120:                                              ; preds = %109
  call void @llvm.lifetime.start.p0(i64 8, ptr %15) #8
  %121 = call i64 @ossl_time_now()
  %122 = getelementptr inbounds nuw %struct.OSSL_TIME, ptr %16, i32 0, i32 0
  store i64 %121, ptr %122, align 8
  %123 = getelementptr inbounds nuw %struct.OSSL_TIME, ptr %16, i32 0, i32 0
  %124 = load i64, ptr %123, align 8
  %125 = getelementptr inbounds nuw %struct.OSSL_TIME, ptr %11, i32 0, i32 0
  %126 = load i64, ptr %125, align 8
  %127 = call i64 @ossl_time_subtract(i64 %124, i64 %126)
  %128 = getelementptr inbounds nuw %struct.OSSL_TIME, ptr %15, i32 0, i32 0
  store i64 %127, ptr %128, align 8
  call void @llvm.memcpy.p0.p0.i64(ptr align 8 %12, ptr align 8 %15, i64 8, i1 false), !tbaa.struct !29
  call void @llvm.lifetime.end.p0(i64 8, ptr %15) #8
  %129 = load ptr, ptr %4, align 8, !tbaa !17
  %130 = call i32 @SSL_get_error(ptr noundef %129, i32 noundef 0)
  %131 = call i32 @test_int_eq(ptr noundef @.str.14, i32 noundef 263, ptr noundef @.str.80, ptr noundef @.str.100, i32 noundef %130, i32 noundef 6)
  %132 = icmp ne i32 %131, 0
  br i1 %132, label %133, label %140

133:                                              ; preds = %120
  %134 = getelementptr inbounds nuw %struct.OSSL_TIME, ptr %12, i32 0, i32 0
  %135 = load i64, ptr %134, align 8
  %136 = call i64 @ossl_time2ticks(i64 %135)
  %137 = udiv i64 %136, 1000000
  %138 = call i32 @test_uint64_t_le(ptr noundef @.str.14, i32 noundef 268, ptr noundef @.str.101, ptr noundef @.str.102, i64 noundef %137, i64 noundef 40)
  %139 = icmp ne i32 %138, 0
  br i1 %139, label %141, label %140

140:                                              ; preds = %133, %120
  br label %151

141:                                              ; preds = %133
  %142 = load ptr, ptr %5, align 8, !tbaa !19
  %143 = load ptr, ptr %4, align 8, !tbaa !17
  %144 = call i32 @qtest_shutdown(ptr noundef %142, ptr noundef %143)
  %145 = icmp ne i32 %144, 0
  %146 = zext i1 %145 to i32
  %147 = call i32 @test_true(ptr noundef @.str.14, i32 noundef 271, ptr noundef @.str.91, i32 noundef %146)
  %148 = icmp ne i32 %147, 0
  br i1 %148, label %150, label %149

149:                                              ; preds = %141
  br label %151

150:                                              ; preds = %141
  store i32 1, ptr %10, align 4, !tbaa !13
  br label %151

151:                                              ; preds = %150, %149, %140, %119, %108, %99, %80, %55, %46
  %152 = load ptr, ptr %5, align 8, !tbaa !19
  call void @ossl_quic_tserver_free(ptr noundef %152)
  %153 = load ptr, ptr %4, align 8, !tbaa !17
  call void @SSL_free(ptr noundef %153)
  %154 = load ptr, ptr %2, align 8, !tbaa !15
  call void @SSL_CTX_free(ptr noundef %154)
  %155 = load ptr, ptr %3, align 8, !tbaa !15
  call void @SSL_CTX_free(ptr noundef %155)
  %156 = load i32, ptr %10, align 4, !tbaa !13
  store i32 %156, ptr %1, align 4
  store i32 1, ptr %13, align 4
  br label %157

157:                                              ; preds = %151, %22
  call void @llvm.lifetime.end.p0(i64 8, ptr %12) #8
  call void @llvm.lifetime.end.p0(i64 8, ptr %11) #8
  call void @llvm.lifetime.end.p0(i64 4, ptr %10) #8
  call void @llvm.lifetime.end.p0(i64 32, ptr %9) #8
  call void @llvm.lifetime.end.p0(i64 8, ptr %8) #8
  call void @llvm.lifetime.end.p0(i64 8, ptr %7) #8
  call void @llvm.lifetime.end.p0(i64 8, ptr %6) #8
  call void @llvm.lifetime.end.p0(i64 8, ptr %5) #8
  call void @llvm.lifetime.end.p0(i64 8, ptr %4) #8
  call void @llvm.lifetime.end.p0(i64 8, ptr %3) #8
  call void @llvm.lifetime.end.p0(i64 8, ptr %2) #8
  %158 = load i32, ptr %1, align 4
  ret i32 %158
}