; Function Attrs: nounwind uwtable
define internal i32 @test_fin_only_blocking() #1 {
  %1 = alloca ptr, align 8
  %2 = alloca ptr, align 8
  %3 = alloca i64, align 8
  %4 = alloca i64, align 8
  %5 = alloca [32 x i8], align 16
  %6 = load ptr, ptr @libctx, align 8, !tbaa !4
  %7 = tail call ptr @OSSL_QUIC_client_method() #10
  %8 = tail call ptr @SSL_CTX_new_ex(ptr noundef %6, ptr noundef null, ptr noundef %7) #10
  call void @llvm.lifetime.start.p0(i64 8, ptr nonnull %1) #10
  store ptr null, ptr %1, align 8, !tbaa !13
  call void @llvm.lifetime.start.p0(i64 8, ptr nonnull %2) #10
  store ptr null, ptr %2, align 8, !tbaa !15
  call void @llvm.lifetime.start.p0(i64 8, ptr nonnull %3) #10
  call void @llvm.lifetime.start.p0(i64 8, ptr nonnull %4) #10
  call void @llvm.lifetime.start.p0(i64 32, ptr nonnull %5) #10
  %9 = tail call i32 @qtest_supports_blocking() #10
  %.not = icmp eq i32 %9, 0
  br i1 %.not, label %10, label %12

10:                                               ; preds = %0
  %11 = tail call i32 (ptr, i32, ptr, ...) @test_skip(ptr noundef nonnull @.str.14, i32 noundef 226, ptr noundef nonnull @.str.61) #10
  br label %94

12:                                               ; preds = %0
  %13 = tail call i32 @test_ptr(ptr noundef nonnull @.str.14, i32 noundef 228, ptr noundef nonnull @.str.62, ptr noundef %8) #10
  %.not16 = icmp eq i32 %13, 0
  br i1 %.not16, label %91, label %14

14:                                               ; preds = %12
  %15 = load ptr, ptr @libctx, align 8, !tbaa !4
  %16 = load ptr, ptr @cert, align 8, !tbaa !11
  %17 = load ptr, ptr @privkey, align 8, !tbaa !11
  %18 = call i32 @qtest_create_quic_objects(ptr noundef %15, ptr noundef %8, ptr noundef null, ptr noundef %16, ptr noundef %17, i32 noundef 1, ptr noundef nonnull %2, ptr noundef nonnull %1, ptr noundef null, ptr noundef null) #10
  %19 = icmp ne i32 %18, 0
  %20 = zext i1 %19 to i32
  %21 = call i32 @test_true(ptr noundef nonnull @.str.14, i32 noundef 233, ptr noundef nonnull @.str.94, i32 noundef %20) #10
  %.not17 = icmp eq i32 %21, 0
  br i1 %.not17, label %91, label %22

22:                                               ; preds = %14
  %23 = load ptr, ptr %1, align 8, !tbaa !13
  %24 = call i64 @SSL_ctrl(ptr noundef %23, i32 noundef 55, i64 noundef 0, ptr noundef nonnull @.str.65) #10
  %25 = icmp ne i64 %24, 0
  %26 = zext i1 %25 to i32
  %27 = call i32 @test_true(ptr noundef nonnull @.str.14, i32 noundef 234, ptr noundef nonnull @.str.64, i32 noundef %26) #10
  %.not18 = icmp eq i32 %27, 0
  br i1 %.not18, label %91, label %28

28:                                               ; preds = %22
  %29 = load ptr, ptr %2, align 8, !tbaa !15
  %30 = load ptr, ptr %1, align 8, !tbaa !13
  %31 = call i32 @qtest_create_quic_connection(ptr noundef %29, ptr noundef %30) #10
  %32 = icmp ne i32 %31, 0
  %33 = zext i1 %32 to i32
  %34 = call i32 @test_true(ptr noundef nonnull @.str.14, i32 noundef 237, ptr noundef nonnull @.str.67, i32 noundef %33) #10
  %.not19 = icmp eq i32 %34, 0
  br i1 %.not19, label %91, label %35

35:                                               ; preds = %28
  %36 = load ptr, ptr %2, align 8, !tbaa !15
  %37 = call i32 @ossl_quic_tserver_stream_new(ptr noundef %36, i32 noundef 0, ptr noundef nonnull %3) #10
  %38 = icmp ne i32 %37, 0
  %39 = zext i1 %38 to i32
  %40 = call i32 @test_true(ptr noundef nonnull @.str.14, i32 noundef 240, ptr noundef nonnull @.str.95, i32 noundef %39) #10
  %.not20 = icmp eq i32 %40, 0
  br i1 %.not20, label %91, label %41

41:                                               ; preds = %35
  %42 = load ptr, ptr %2, align 8, !tbaa !15
  %43 = load i64, ptr %3, align 8, !tbaa !17
  %44 = call i32 @ossl_quic_tserver_write(ptr noundef %42, i64 noundef %43, ptr noundef nonnull @.str.93, i64 noundef 11, ptr noundef nonnull %4) #10
  %45 = icmp ne i32 %44, 0
  %46 = zext i1 %45 to i32
  %47 = call i32 @test_true(ptr noundef nonnull @.str.14, i32 noundef 243, ptr noundef nonnull @.str.96, i32 noundef %46) #10
  %.not21 = icmp eq i32 %47, 0
  br i1 %.not21, label %91, label %48

48:                                               ; preds = %41
  %49 = load i64, ptr %4, align 8, !tbaa !17
  %50 = call i32 @test_size_t_eq(ptr noundef nonnull @.str.14, i32 noundef 244, ptr noundef nonnull @.str.97, ptr noundef nonnull @.str.72, i64 noundef 11, i64 noundef %49) #10
  %.not22 = icmp eq i32 %50, 0
  br i1 %.not22, label %91, label %51

51:                                               ; preds = %48
  %52 = load ptr, ptr %2, align 8, !tbaa !15
  %53 = call i32 @ossl_quic_tserver_tick(ptr noundef %52) #10
  %54 = load ptr, ptr %1, align 8, !tbaa !13
  %55 = call i32 @SSL_read_ex(ptr noundef %54, ptr noundef nonnull %5, i64 noundef 32, ptr noundef nonnull %4) #10
  %56 = icmp ne i32 %55, 0
  %57 = zext i1 %56 to i32
  %58 = call i32 @test_true(ptr noundef nonnull @.str.14, i32 noundef 249, ptr noundef nonnull @.str.98, i32 noundef %57) #10
  %.not23 = icmp eq i32 %58, 0
  br i1 %.not23, label %91, label %59

59:                                               ; preds = %51
  %60 = load i64, ptr %4, align 8, !tbaa !17
  %61 = call i32 @test_mem_eq(ptr noundef nonnull @.str.14, i32 noundef 250, ptr noundef nonnull @.str.77, ptr noundef nonnull @.str.76, ptr noundef nonnull @.str.93, i64 noundef 11, ptr noundef nonnull %5, i64 noundef %60) #10
  %.not24 = icmp eq i32 %61, 0
  br i1 %.not24, label %91, label %62

62:                                               ; preds = %59
  %63 = load ptr, ptr %2, align 8, !tbaa !15
  %64 = load i64, ptr %3, align 8, !tbaa !17
  %65 = call i32 @ossl_quic_tserver_conclude(ptr noundef %63, i64 noundef %64) #10
  %66 = icmp ne i32 %65, 0
  %67 = zext i1 %66 to i32
  %68 = call i32 @test_true(ptr noundef nonnull @.str.14, i32 noundef 255, ptr noundef nonnull @.str.99, i32 noundef %67) #10
  %.not25 = icmp eq i32 %68, 0
  br i1 %.not25, label %91, label %69

69:                                               ; preds = %62
  %70 = call i64 @ossl_time_now() #10
  %71 = load ptr, ptr %1, align 8, !tbaa !13
  %72 = call i32 @SSL_read_ex(ptr noundef %71, ptr noundef nonnull %5, i64 noundef 32, ptr noundef nonnull %4) #10
  %73 = icmp ne i32 %72, 0
  %74 = zext i1 %73 to i32
  %75 = call i32 @test_false(ptr noundef nonnull @.str.14, i32 noundef 259, ptr noundef nonnull @.str.98, i32 noundef %74) #10
  %.not26 = icmp eq i32 %75, 0
  br i1 %.not26, label %91, label %76

76:                                               ; preds = %69
  %77 = call i64 @ossl_time_now() #10
  %78 = load ptr, ptr %1, align 8, !tbaa !13
  %79 = call i32 @SSL_get_error(ptr noundef %78, i32 noundef 0) #10
  %80 = call i32 @test_int_eq(ptr noundef nonnull @.str.14, i32 noundef 263, ptr noundef nonnull @.str.80, ptr noundef nonnull @.str.100, i32 noundef %79, i32 noundef 6) #10
  %.not27 = icmp eq i32 %80, 0
  br i1 %.not27, label %91, label %81

81:                                               ; preds = %76
  %..i = call i64 @llvm.usub.sat.i64(i64 %77, i64 %70)
  %82 = udiv i64 %..i, 1000000
  %83 = call i32 @test_uint64_t_le(ptr noundef nonnull @.str.14, i32 noundef 268, ptr noundef nonnull @.str.101, ptr noundef nonnull @.str.102, i64 noundef %82, i64 noundef 40) #10
  %.not28 = icmp eq i32 %83, 0
  br i1 %.not28, label %91, label %84

84:                                               ; preds = %81
  %85 = load ptr, ptr %2, align 8, !tbaa !15
  %86 = load ptr, ptr %1, align 8, !tbaa !13
  %87 = call i32 @qtest_shutdown(ptr noundef %85, ptr noundef %86) #10
  %88 = icmp ne i32 %87, 0
  %89 = zext i1 %88 to i32
  %90 = call i32 @test_true(ptr noundef nonnull @.str.14, i32 noundef 271, ptr noundef nonnull @.str.91, i32 noundef %89) #10
  %.not29 = icmp ne i32 %90, 0
  %spec.select = zext i1 %.not29 to i32
  br label %91

91:                                               ; preds = %84, %76, %81, %69, %62, %51, %59, %35, %41, %48, %28, %12, %14, %22
  %.015 = phi i32 [ 0, %81 ], [ 0, %76 ], [ 0, %69 ], [ 0, %62 ], [ 0, %59 ], [ 0, %51 ], [ 0, %48 ], [ 0, %41 ], [ 0, %35 ], [ 0, %28 ], [ 0, %22 ], [ 0, %14 ], [ 0, %12 ], [ %spec.select, %84 ]
  %92 = load ptr, ptr %2, align 8, !tbaa !15
  call void @ossl_quic_tserver_free(ptr noundef %92) #10
  %93 = load ptr, ptr %1, align 8, !tbaa !13
  call void @SSL_free(ptr noundef %93) #10
  call void @SSL_CTX_free(ptr noundef %8) #10
  call void @SSL_CTX_free(ptr noundef null) #10
  br label %94

94:                                               ; preds = %91, %10
  %.0 = phi i32 [ %.015, %91 ], [ %11, %10 ]
  call void @llvm.lifetime.end.p0(i64 32, ptr nonnull %5) #10
  call void @llvm.lifetime.end.p0(i64 8, ptr nonnull %4) #10
  call void @llvm.lifetime.end.p0(i64 8, ptr nonnull %3) #10
  call void @llvm.lifetime.end.p0(i64 8, ptr nonnull %2) #10
  call void @llvm.lifetime.end.p0(i64 8, ptr nonnull %1) #10
  ret i32 %.0
}